target datalayout = "e-m:e-p270:32:32-p271:32:32-p272:64:64-i64:64-i128:128-f80:128-n8:16:32:64-S128"
target triple = "x86_64-pc-linux-gnu"

%struct.b2ShapeId = type { i32, i16, i16 }
%struct.b2Vec2 = type { float, float }
%struct.b2BodyId = type { i32, i16, i16 }
%struct.b2Segment = type { %struct.b2Vec2, %struct.b2Vec2 }

@b2_lengthUnitsPerMeter = external global float, align 4
@b2_nullShapeId = internal constant %struct.b2ShapeId zeroinitializer, align 4

; Function Attrs: inlinehint nounwind uwtable
define internal float @b2DistanceSquared(<2 x float> %0, <2 x float> %1) #5 {
  %3 = alloca %struct.b2Vec2, align 4
  %4 = alloca %struct.b2Vec2, align 4
  %5 = alloca %struct.b2Vec2, align 4
  store <2 x float> %0, ptr %3, align 4
  store <2 x float> %1, ptr %4, align 4
  call void @llvm.lifetime.start.p0(i64 8, ptr %5) #9
  %6 = getelementptr inbounds nuw %struct.b2Vec2, ptr %5, i32 0, i32 0
  %7 = getelementptr inbounds nuw %struct.b2Vec2, ptr %4, i32 0, i32 0
  %8 = load float, ptr %7, align 4, !tbaa !55
  %9 = getelementptr inbounds nuw %struct.b2Vec2, ptr %3, i32 0, i32 0
  %10 = load float, ptr %9, align 4, !tbaa !55
  %11 = fsub float %8, %10
  store float %11, ptr %6, align 4, !tbaa !55
  %12 = getelementptr inbounds nuw %struct.b2Vec2, ptr %5, i32 0, i32 1
  %13 = getelementptr inbounds nuw %struct.b2Vec2, ptr %4, i32 0, i32 1
  %14 = load float, ptr %13, align 4, !tbaa !56
  %15 = getelementptr inbounds nuw %struct.b2Vec2, ptr %3, i32 0, i32 1
  %16 = load float, ptr %15, align 4, !tbaa !56
  %17 = fsub float %14, %16
  store float %17, ptr %12, align 4, !tbaa !56
  %18 = getelementptr inbounds nuw %struct.b2Vec2, ptr %5, i32 0, i32 0
  %19 = load float, ptr %18, align 4, !tbaa !55
  %20 = getelementptr inbounds nuw %struct.b2Vec2, ptr %5, i32 0, i32 0
  %21 = load float, ptr %20, align 4, !tbaa !55
  %22 = fmul float %19, %21
  %23 = getelementptr inbounds nuw %struct.b2Vec2, ptr %5, i32 0, i32 1
  %24 = load float, ptr %23, align 4, !tbaa !56
  %25 = getelementptr inbounds nuw %struct.b2Vec2, ptr %5, i32 0, i32 1
  %26 = load float, ptr %25, align 4, !tbaa !56
  %27 = fmul float %24, %26
  %28 = fadd float %22, %27
  call void @llvm.lifetime.end.p0(i64 8, ptr %5) #9
  ret float %28
}

; Function Attrs: nounwind uwtable
define i64 @b2CreateSegmentShape(i64 %0, ptr noundef %1, ptr noundef %2) #3 {
  %4 = alloca %struct.b2ShapeId, align 4
  %5 = alloca %struct.b2BodyId, align 4
  %6 = alloca ptr, align 8
  %7 = alloca ptr, align 8
  %8 = alloca float, align 4
  %9 = alloca i32, align 4
  store i64 %0, ptr %5, align 4
  store ptr %1, ptr %6, align 8, !tbaa !19
  store ptr %2, ptr %7, align 8, !tbaa !59
  call void @llvm.lifetime.start.p0(i64 4, ptr %8) #9
  %10 = load ptr, ptr %7, align 8, !tbaa !59
  %11 = getelementptr inbounds nuw %struct.b2Segment, ptr %10, i32 0, i32 0
  %12 = load ptr, ptr %7, align 8, !tbaa !59
  %13 = getelementptr inbounds nuw %struct.b2Segment, ptr %12, i32 0, i32 1
  %14 = load <2 x float>, ptr %11, align 4
  %15 = load <2 x float>, ptr %13, align 4
  %16 = call float @b2DistanceSquared(<2 x float> %14, <2 x float> %15)
  store float %16, ptr %8, align 4, !tbaa !50
  %17 = load float, ptr %8, align 4, !tbaa !50
  %18 = load float, ptr @b2_lengthUnitsPerMeter, align 4, !tbaa !50
  %19 = fmul float 0x3F747AE140000000, %18
  %20 = load float, ptr @b2_lengthUnitsPerMeter, align 4, !tbaa !50
  %21 = fmul float 0x3F747AE140000000, %20
  %22 = fmul float %19, %21
  %23 = fcmp ole float %17, %22
  br i1 %23, label %24, label %25

24:                                               ; preds = %3
  call void @llvm.memcpy.p0.p0.i64(ptr align 4 %4, ptr align 4 @b2_nullShapeId, i64 8, i1 false), !tbaa.struct !61
  store i32 1, ptr %9, align 4
  br label %30

25:                                               ; preds = %3
  %26 = load ptr, ptr %6, align 8, !tbaa !19
  %27 = load ptr, ptr %7, align 8, !tbaa !59
  %28 = load i64, ptr %5, align 4
  %29 = call i64 @b2CreateShape(i64 %28, ptr noundef %26, ptr noundef %27, i32 noundef 2)
  store i64 %29, ptr %4, align 4
  store i32 1, ptr %9, align 4
  br label %30

30:                                               ; preds = %25, %24
  call void @llvm.lifetime.end.p0(i64 4, ptr %8) #9
  %31 = load i64, ptr %4, align 4
  ret i64 %31
}