; Function Attrs: nounwind uwtable
define i64 @b2CreateSegmentShape(i64 %0, ptr noundef readonly captures(none) %1, ptr noundef readonly captures(none) %2) local_unnamed_addr #3 {
  %4 = getelementptr inbounds nuw i8, ptr %2, i64 8
  %5 = load <2 x float>, ptr %2, align 4
  %6 = load <2 x float>, ptr %4, align 4
  %7 = fsub <2 x float> %6, %5
  %8 = fsub <2 x float> %6, %5
  %9 = fmul <2 x float> %7, %7
  %10 = fmul <2 x float> %8, %8
  %shift = shufflevector <2 x float> %10, <2 x float> poison, <2 x i32> <i32 1, i32 poison>
  %11 = fadd <2 x float> %9, %shift
  %12 = extractelement <2 x float> %11, i64 0
  %13 = load float, ptr @b2_lengthUnitsPerMeter, align 4, !tbaa !29
  %14 = fmul float %13, 0x3F747AE140000000
  %15 = fmul float %14, %14
  %16 = fcmp ugt float %12, %15
  br i1 %16, label %17, label %19

17:                                               ; preds = %3
  %18 = tail call fastcc i64 @b2CreateShape(i64 %0, ptr noundef %1, ptr noundef nonnull %2, i32 noundef 2)
  br label %19

19:                                               ; preds = %3, %17
  %.sroa.05.0 = phi i64 [ %18, %17 ], [ 0, %3 ]
  ret i64 %.sroa.05.0
}